target datalayout = "e-m:e-p270:32:32-p271:32:32-p272:64:64-i64:64-i128:128-f80:128-n8:16:32:64-S128"
target triple = "x86_64-pc-linux-gnu"

%struct.OSQPSettings = type { i64, i32, i64, i64, i64, i64, i64, i64, double, i64, double, double, i64, i64, double, i32, i64, i64, double, double, i64, double, double, double, double, i64, i64, i64, double, double, i64 }

; Function Attrs: nounwind uwtable
define ptr @copy_settings(ptr noundef %0) #0 {
  %2 = alloca ptr, align 8
  %3 = alloca ptr, align 8
  %4 = alloca ptr, align 8
  %5 = alloca i32, align 4
  store ptr %0, ptr %3, align 8, !tbaa !11
  call void @llvm.lifetime.start.p0(i64 8, ptr %4) #4
  %6 = call noalias ptr @malloc(i64 noundef 248) #5
  store ptr %6, ptr %4, align 8, !tbaa !11
  %7 = load ptr, ptr %4, align 8, !tbaa !11
  %8 = icmp ne ptr %7, null
  br i1 %8, label %10, label %9

9:                                                ; preds = %1
  store ptr null, ptr %2, align 8
  store i32 1, ptr %5, align 4
  br label %167

10:                                               ; preds = %1
  %11 = load ptr, ptr %3, align 8, !tbaa !11
  %12 = getelementptr inbounds nuw %struct.OSQPSettings, ptr %11, i32 0, i32 0
  %13 = load i64, ptr %12, align 8, !tbaa !77
  %14 = load ptr, ptr %4, align 8, !tbaa !11
  %15 = getelementptr inbounds nuw %struct.OSQPSettings, ptr %14, i32 0, i32 0
  store i64 %13, ptr %15, align 8, !tbaa !77
  %16 = load ptr, ptr %3, align 8, !tbaa !11
  %17 = getelementptr inbounds nuw %struct.OSQPSettings, ptr %16, i32 0, i32 1
  %18 = load i32, ptr %17, align 8, !tbaa !78
  %19 = load ptr, ptr %4, align 8, !tbaa !11
  %20 = getelementptr inbounds nuw %struct.OSQPSettings, ptr %19, i32 0, i32 1
  store i32 %18, ptr %20, align 8, !tbaa !78
  %21 = load ptr, ptr %3, align 8, !tbaa !11
  %22 = getelementptr inbounds nuw %struct.OSQPSettings, ptr %21, i32 0, i32 2
  %23 = load i64, ptr %22, align 8, !tbaa !79
  %24 = load ptr, ptr %4, align 8, !tbaa !11
  %25 = getelementptr inbounds nuw %struct.OSQPSettings, ptr %24, i32 0, i32 2
  store i64 %23, ptr %25, align 8, !tbaa !79
  %26 = load ptr, ptr %3, align 8, !tbaa !11
  %27 = getelementptr inbounds nuw %struct.OSQPSettings, ptr %26, i32 0, i32 4
  %28 = load i64, ptr %27, align 8, !tbaa !80
  %29 = load ptr, ptr %4, align 8, !tbaa !11
  %30 = getelementptr inbounds nuw %struct.OSQPSettings, ptr %29, i32 0, i32 4
  store i64 %28, ptr %30, align 8, !tbaa !80
  %31 = load ptr, ptr %3, align 8, !tbaa !11
  %32 = getelementptr inbounds nuw %struct.OSQPSettings, ptr %31, i32 0, i32 3
  %33 = load i64, ptr %32, align 8, !tbaa !81
  %34 = load ptr, ptr %4, align 8, !tbaa !11
  %35 = getelementptr inbounds nuw %struct.OSQPSettings, ptr %34, i32 0, i32 3
  store i64 %33, ptr %35, align 8, !tbaa !81
  %36 = load ptr, ptr %3, align 8, !tbaa !11
  %37 = getelementptr inbounds nuw %struct.OSQPSettings, ptr %36, i32 0, i32 5
  %38 = load i64, ptr %37, align 8, !tbaa !52
  %39 = load ptr, ptr %4, align 8, !tbaa !11
  %40 = getelementptr inbounds nuw %struct.OSQPSettings, ptr %39, i32 0, i32 5
  store i64 %38, ptr %40, align 8, !tbaa !52
  %41 = load ptr, ptr %3, align 8, !tbaa !11
  %42 = getelementptr inbounds nuw %struct.OSQPSettings, ptr %41, i32 0, i32 6
  %43 = load i64, ptr %42, align 8, !tbaa !50
  %44 = load ptr, ptr %4, align 8, !tbaa !11
  %45 = getelementptr inbounds nuw %struct.OSQPSettings, ptr %44, i32 0, i32 6
  store i64 %43, ptr %45, align 8, !tbaa !50
  %46 = load ptr, ptr %3, align 8, !tbaa !11
  %47 = getelementptr inbounds nuw %struct.OSQPSettings, ptr %46, i32 0, i32 7
  %48 = load i64, ptr %47, align 8, !tbaa !53
  %49 = load ptr, ptr %4, align 8, !tbaa !11
  %50 = getelementptr inbounds nuw %struct.OSQPSettings, ptr %49, i32 0, i32 7
  store i64 %48, ptr %50, align 8, !tbaa !53
  %51 = load ptr, ptr %3, align 8, !tbaa !11
  %52 = getelementptr inbounds nuw %struct.OSQPSettings, ptr %51, i32 0, i32 8
  %53 = load double, ptr %52, align 8, !tbaa !41
  %54 = load ptr, ptr %4, align 8, !tbaa !11
  %55 = getelementptr inbounds nuw %struct.OSQPSettings, ptr %54, i32 0, i32 8
  store double %53, ptr %55, align 8, !tbaa !41
  %56 = load ptr, ptr %3, align 8, !tbaa !11
  %57 = getelementptr inbounds nuw %struct.OSQPSettings, ptr %56, i32 0, i32 9
  %58 = load i64, ptr %57, align 8, !tbaa !82
  %59 = load ptr, ptr %4, align 8, !tbaa !11
  %60 = getelementptr inbounds nuw %struct.OSQPSettings, ptr %59, i32 0, i32 9
  store i64 %58, ptr %60, align 8, !tbaa !82
  %61 = load ptr, ptr %3, align 8, !tbaa !11
  %62 = getelementptr inbounds nuw %struct.OSQPSettings, ptr %61, i32 0, i32 10
  %63 = load double, ptr %62, align 8, !tbaa !44
  %64 = load ptr, ptr %4, align 8, !tbaa !11
  %65 = getelementptr inbounds nuw %struct.OSQPSettings, ptr %64, i32 0, i32 10
  store double %63, ptr %65, align 8, !tbaa !44
  %66 = load ptr, ptr %3, align 8, !tbaa !11
  %67 = getelementptr inbounds nuw %struct.OSQPSettings, ptr %66, i32 0, i32 11
  %68 = load double, ptr %67, align 8, !tbaa !45
  %69 = load ptr, ptr %4, align 8, !tbaa !11
  %70 = getelementptr inbounds nuw %struct.OSQPSettings, ptr %69, i32 0, i32 11
  store double %68, ptr %70, align 8, !tbaa !45
  %71 = load ptr, ptr %3, align 8, !tbaa !11
  %72 = getelementptr inbounds nuw %struct.OSQPSettings, ptr %71, i32 0, i32 12
  %73 = load i64, ptr %72, align 8, !tbaa !83
  %74 = load ptr, ptr %4, align 8, !tbaa !11
  %75 = getelementptr inbounds nuw %struct.OSQPSettings, ptr %74, i32 0, i32 12
  store i64 %73, ptr %75, align 8, !tbaa !83
  %76 = load ptr, ptr %3, align 8, !tbaa !11
  %77 = getelementptr inbounds nuw %struct.OSQPSettings, ptr %76, i32 0, i32 13
  %78 = load i64, ptr %77, align 8, !tbaa !84
  %79 = load ptr, ptr %4, align 8, !tbaa !11
  %80 = getelementptr inbounds nuw %struct.OSQPSettings, ptr %79, i32 0, i32 13
  store i64 %78, ptr %80, align 8, !tbaa !84
  %81 = load ptr, ptr %3, align 8, !tbaa !11
  %82 = getelementptr inbounds nuw %struct.OSQPSettings, ptr %81, i32 0, i32 14
  %83 = load double, ptr %82, align 8, !tbaa !85
  %84 = load ptr, ptr %4, align 8, !tbaa !11
  %85 = getelementptr inbounds nuw %struct.OSQPSettings, ptr %84, i32 0, i32 14
  store double %83, ptr %85, align 8, !tbaa !85
  %86 = load ptr, ptr %3, align 8, !tbaa !11
  %87 = getelementptr inbounds nuw %struct.OSQPSettings, ptr %86, i32 0, i32 15
  %88 = load i32, ptr %87, align 8, !tbaa !86
  %89 = load ptr, ptr %4, align 8, !tbaa !11
  %90 = getelementptr inbounds nuw %struct.OSQPSettings, ptr %89, i32 0, i32 15
  store i32 %88, ptr %90, align 8, !tbaa !86
  %91 = load ptr, ptr %3, align 8, !tbaa !11
  %92 = getelementptr inbounds nuw %struct.OSQPSettings, ptr %91, i32 0, i32 16
  %93 = load i64, ptr %92, align 8, !tbaa !42
  %94 = load ptr, ptr %4, align 8, !tbaa !11
  %95 = getelementptr inbounds nuw %struct.OSQPSettings, ptr %94, i32 0, i32 16
  store i64 %93, ptr %95, align 8, !tbaa !42
  %96 = load ptr, ptr %3, align 8, !tbaa !11
  %97 = getelementptr inbounds nuw %struct.OSQPSettings, ptr %96, i32 0, i32 17
  %98 = load i64, ptr %97, align 8, !tbaa !43
  %99 = load ptr, ptr %4, align 8, !tbaa !11
  %100 = getelementptr inbounds nuw %struct.OSQPSettings, ptr %99, i32 0, i32 17
  store i64 %98, ptr %100, align 8, !tbaa !43
  %101 = load ptr, ptr %3, align 8, !tbaa !11
  %102 = getelementptr inbounds nuw %struct.OSQPSettings, ptr %101, i32 0, i32 18
  %103 = load double, ptr %102, align 8, !tbaa !87
  %104 = load ptr, ptr %4, align 8, !tbaa !11
  %105 = getelementptr inbounds nuw %struct.OSQPSettings, ptr %104, i32 0, i32 18
  store double %103, ptr %105, align 8, !tbaa !87
  %106 = load ptr, ptr %3, align 8, !tbaa !11
  %107 = getelementptr inbounds nuw %struct.OSQPSettings, ptr %106, i32 0, i32 19
  %108 = load double, ptr %107, align 8, !tbaa !88
  %109 = load ptr, ptr %4, align 8, !tbaa !11
  %110 = getelementptr inbounds nuw %struct.OSQPSettings, ptr %109, i32 0, i32 19
  store double %108, ptr %110, align 8, !tbaa !88
  %111 = load ptr, ptr %3, align 8, !tbaa !11
  %112 = getelementptr inbounds nuw %struct.OSQPSettings, ptr %111, i32 0, i32 20
  %113 = load i64, ptr %112, align 8, !tbaa !46
  %114 = load ptr, ptr %4, align 8, !tbaa !11
  %115 = getelementptr inbounds nuw %struct.OSQPSettings, ptr %114, i32 0, i32 20
  store i64 %113, ptr %115, align 8, !tbaa !46
  %116 = load ptr, ptr %3, align 8, !tbaa !11
  %117 = getelementptr inbounds nuw %struct.OSQPSettings, ptr %116, i32 0, i32 21
  %118 = load double, ptr %117, align 8, !tbaa !36
  %119 = load ptr, ptr %4, align 8, !tbaa !11
  %120 = getelementptr inbounds nuw %struct.OSQPSettings, ptr %119, i32 0, i32 21
  store double %118, ptr %120, align 8, !tbaa !36
  %121 = load ptr, ptr %3, align 8, !tbaa !11
  %122 = getelementptr inbounds nuw %struct.OSQPSettings, ptr %121, i32 0, i32 22
  %123 = load double, ptr %122, align 8, !tbaa !38
  %124 = load ptr, ptr %4, align 8, !tbaa !11
  %125 = getelementptr inbounds nuw %struct.OSQPSettings, ptr %124, i32 0, i32 22
  store double %123, ptr %125, align 8, !tbaa !38
  %126 = load ptr, ptr %3, align 8, !tbaa !11
  %127 = getelementptr inbounds nuw %struct.OSQPSettings, ptr %126, i32 0, i32 23
  %128 = load double, ptr %127, align 8, !tbaa !39
  %129 = load ptr, ptr %4, align 8, !tbaa !11
  %130 = getelementptr inbounds nuw %struct.OSQPSettings, ptr %129, i32 0, i32 23
  store double %128, ptr %130, align 8, !tbaa !39
  %131 = load ptr, ptr %3, align 8, !tbaa !11
  %132 = getelementptr inbounds nuw %struct.OSQPSettings, ptr %131, i32 0, i32 24
  %133 = load double, ptr %132, align 8, !tbaa !40
  %134 = load ptr, ptr %4, align 8, !tbaa !11
  %135 = getelementptr inbounds nuw %struct.OSQPSettings, ptr %134, i32 0, i32 24
  store double %133, ptr %135, align 8, !tbaa !40
  %136 = load ptr, ptr %3, align 8, !tbaa !11
  %137 = getelementptr inbounds nuw %struct.OSQPSettings, ptr %136, i32 0, i32 25
  %138 = load i64, ptr %137, align 8, !tbaa !51
  %139 = load ptr, ptr %4, align 8, !tbaa !11
  %140 = getelementptr inbounds nuw %struct.OSQPSettings, ptr %139, i32 0, i32 25
  store i64 %138, ptr %140, align 8, !tbaa !51
  %141 = load ptr, ptr %3, align 8, !tbaa !11
  %142 = getelementptr inbounds nuw %struct.OSQPSettings, ptr %141, i32 0, i32 26
  %143 = load i64, ptr %142, align 8, !tbaa !47
  %144 = load ptr, ptr %4, align 8, !tbaa !11
  %145 = getelementptr inbounds nuw %struct.OSQPSettings, ptr %144, i32 0, i32 26
  store i64 %143, ptr %145, align 8, !tbaa !47
  %146 = load ptr, ptr %3, align 8, !tbaa !11
  %147 = getelementptr inbounds nuw %struct.OSQPSettings, ptr %146, i32 0, i32 27
  %148 = load i64, ptr %147, align 8, !tbaa !48
  %149 = load ptr, ptr %4, align 8, !tbaa !11
  %150 = getelementptr inbounds nuw %struct.OSQPSettings, ptr %149, i32 0, i32 27
  store i64 %148, ptr %150, align 8, !tbaa !48
  %151 = load ptr, ptr %3, align 8, !tbaa !11
  %152 = getelementptr inbounds nuw %struct.OSQPSettings, ptr %151, i32 0, i32 28
  %153 = load double, ptr %152, align 8, !tbaa !49
  %154 = load ptr, ptr %4, align 8, !tbaa !11
  %155 = getelementptr inbounds nuw %struct.OSQPSettings, ptr %154, i32 0, i32 28
  store double %153, ptr %155, align 8, !tbaa !49
  %156 = load ptr, ptr %3, align 8, !tbaa !11
  %157 = getelementptr inbounds nuw %struct.OSQPSettings, ptr %156, i32 0, i32 29
  %158 = load double, ptr %157, align 8, !tbaa !89
  %159 = load ptr, ptr %4, align 8, !tbaa !11
  %160 = getelementptr inbounds nuw %struct.OSQPSettings, ptr %159, i32 0, i32 29
  store double %158, ptr %160, align 8, !tbaa !89
  %161 = load ptr, ptr %3, align 8, !tbaa !11
  %162 = getelementptr inbounds nuw %struct.OSQPSettings, ptr %161, i32 0, i32 30
  %163 = load i64, ptr %162, align 8, !tbaa !90
  %164 = load ptr, ptr %4, align 8, !tbaa !11
  %165 = getelementptr inbounds nuw %struct.OSQPSettings, ptr %164, i32 0, i32 30
  store i64 %163, ptr %165, align 8, !tbaa !90
  %166 = load ptr, ptr %4, align 8, !tbaa !11
  store ptr %166, ptr %2, align 8
  store i32 1, ptr %5, align 4
  br label %167

167:                                              ; preds = %10, %9
  call void @llvm.lifetime.end.p0(i64 8, ptr %4) #4
  %168 = load ptr, ptr %2, align 8
  ret ptr %168
}