; Function Attrs: mustprogress nofree nounwind willreturn memory(write, argmem: read, inaccessiblemem: readwrite) uwtable
define noalias noundef ptr @copy_settings(ptr noundef readonly captures(none) %0) local_unnamed_addr #6 {
  %2 = tail call noalias dereferenceable_or_null(248) ptr @malloc(i64 noundef 248) #11
  %.not = icmp eq ptr %2, null
  br i1 %.not, label %95, label %3

3:                                                ; preds = %1
  %4 = load i64, ptr %0, align 8, !tbaa !68
  store i64 %4, ptr %2, align 8, !tbaa !68
  %5 = getelementptr inbounds nuw i8, ptr %0, i64 8
  %6 = load i32, ptr %5, align 8, !tbaa !69
  %7 = getelementptr inbounds nuw i8, ptr %2, i64 8
  store i32 %6, ptr %7, align 8, !tbaa !69
  %8 = getelementptr inbounds nuw i8, ptr %0, i64 16
  %9 = load i64, ptr %8, align 8, !tbaa !70
  %10 = getelementptr inbounds nuw i8, ptr %2, i64 16
  store i64 %9, ptr %10, align 8, !tbaa !70
  %11 = getelementptr inbounds nuw i8, ptr %0, i64 32
  %12 = load i64, ptr %11, align 8, !tbaa !71
  %13 = getelementptr inbounds nuw i8, ptr %2, i64 32
  store i64 %12, ptr %13, align 8, !tbaa !71
  %14 = getelementptr inbounds nuw i8, ptr %0, i64 24
  %15 = load i64, ptr %14, align 8, !tbaa !72
  %16 = getelementptr inbounds nuw i8, ptr %2, i64 24
  store i64 %15, ptr %16, align 8, !tbaa !72
  %17 = getelementptr inbounds nuw i8, ptr %0, i64 40
  %18 = load i64, ptr %17, align 8, !tbaa !46
  %19 = getelementptr inbounds nuw i8, ptr %2, i64 40
  store i64 %18, ptr %19, align 8, !tbaa !46
  %20 = getelementptr inbounds nuw i8, ptr %0, i64 48
  %21 = load i64, ptr %20, align 8, !tbaa !44
  %22 = getelementptr inbounds nuw i8, ptr %2, i64 48
  store i64 %21, ptr %22, align 8, !tbaa !44
  %23 = getelementptr inbounds nuw i8, ptr %0, i64 56
  %24 = load i64, ptr %23, align 8, !tbaa !47
  %25 = getelementptr inbounds nuw i8, ptr %2, i64 56
  store i64 %24, ptr %25, align 8, !tbaa !47
  %26 = getelementptr inbounds nuw i8, ptr %0, i64 64
  %27 = load double, ptr %26, align 8, !tbaa !35
  %28 = getelementptr inbounds nuw i8, ptr %2, i64 64
  store double %27, ptr %28, align 8, !tbaa !35
  %29 = getelementptr inbounds nuw i8, ptr %0, i64 72
  %30 = load i64, ptr %29, align 8, !tbaa !73
  %31 = getelementptr inbounds nuw i8, ptr %2, i64 72
  store i64 %30, ptr %31, align 8, !tbaa !73
  %32 = getelementptr inbounds nuw i8, ptr %0, i64 80
  %33 = load double, ptr %32, align 8, !tbaa !38
  %34 = getelementptr inbounds nuw i8, ptr %2, i64 80
  store double %33, ptr %34, align 8, !tbaa !38
  %35 = getelementptr inbounds nuw i8, ptr %0, i64 88
  %36 = load double, ptr %35, align 8, !tbaa !39
  %37 = getelementptr inbounds nuw i8, ptr %2, i64 88
  store double %36, ptr %37, align 8, !tbaa !39
  %38 = getelementptr inbounds nuw i8, ptr %0, i64 96
  %39 = load i64, ptr %38, align 8, !tbaa !74
  %40 = getelementptr inbounds nuw i8, ptr %2, i64 96
  store i64 %39, ptr %40, align 8, !tbaa !74
  %41 = getelementptr inbounds nuw i8, ptr %0, i64 104
  %42 = load i64, ptr %41, align 8, !tbaa !75
  %43 = getelementptr inbounds nuw i8, ptr %2, i64 104
  store i64 %42, ptr %43, align 8, !tbaa !75
  %44 = getelementptr inbounds nuw i8, ptr %0, i64 112
  %45 = load double, ptr %44, align 8, !tbaa !76
  %46 = getelementptr inbounds nuw i8, ptr %2, i64 112
  store double %45, ptr %46, align 8, !tbaa !76
  %47 = getelementptr inbounds nuw i8, ptr %0, i64 120
  %48 = load i32, ptr %47, align 8, !tbaa !77
  %49 = getelementptr inbounds nuw i8, ptr %2, i64 120
  store i32 %48, ptr %49, align 8, !tbaa !77
  %50 = getelementptr inbounds nuw i8, ptr %0, i64 128
  %51 = load i64, ptr %50, align 8, !tbaa !36
  %52 = getelementptr inbounds nuw i8, ptr %2, i64 128
  store i64 %51, ptr %52, align 8, !tbaa !36
  %53 = getelementptr inbounds nuw i8, ptr %0, i64 136
  %54 = load i64, ptr %53, align 8, !tbaa !37
  %55 = getelementptr inbounds nuw i8, ptr %2, i64 136
  store i64 %54, ptr %55, align 8, !tbaa !37
  %56 = getelementptr inbounds nuw i8, ptr %0, i64 144
  %57 = load double, ptr %56, align 8, !tbaa !78
  %58 = getelementptr inbounds nuw i8, ptr %2, i64 144
  store double %57, ptr %58, align 8, !tbaa !78
  %59 = getelementptr inbounds nuw i8, ptr %0, i64 152
  %60 = load double, ptr %59, align 8, !tbaa !79
  %61 = getelementptr inbounds nuw i8, ptr %2, i64 152
  store double %60, ptr %61, align 8, !tbaa !79
  %62 = getelementptr inbounds nuw i8, ptr %0, i64 160
  %63 = load i64, ptr %62, align 8, !tbaa !40
  %64 = getelementptr inbounds nuw i8, ptr %2, i64 160
  store i64 %63, ptr %64, align 8, !tbaa !40
  %65 = getelementptr inbounds nuw i8, ptr %0, i64 168
  %66 = load double, ptr %65, align 8, !tbaa !30
  %67 = getelementptr inbounds nuw i8, ptr %2, i64 168
  store double %66, ptr %67, align 8, !tbaa !30
  %68 = getelementptr inbounds nuw i8, ptr %0, i64 176
  %69 = load double, ptr %68, align 8, !tbaa !32
  %70 = getelementptr inbounds nuw i8, ptr %2, i64 176
  store double %69, ptr %70, align 8, !tbaa !32
  %71 = getelementptr inbounds nuw i8, ptr %0, i64 184
  %72 = load double, ptr %71, align 8, !tbaa !33
  %73 = getelementptr inbounds nuw i8, ptr %2, i64 184
  store double %72, ptr %73, align 8, !tbaa !33
  %74 = getelementptr inbounds nuw i8, ptr %0, i64 192
  %75 = load double, ptr %74, align 8, !tbaa !34
  %76 = getelementptr inbounds nuw i8, ptr %2, i64 192
  store double %75, ptr %76, align 8, !tbaa !34
  %77 = getelementptr inbounds nuw i8, ptr %0, i64 200
  %78 = load i64, ptr %77, align 8, !tbaa !45
  %79 = getelementptr inbounds nuw i8, ptr %2, i64 200
  store i64 %78, ptr %79, align 8, !tbaa !45
  %80 = getelementptr inbounds nuw i8, ptr %0, i64 208
  %81 = load i64, ptr %80, align 8, !tbaa !41
  %82 = getelementptr inbounds nuw i8, ptr %2, i64 208
  store i64 %81, ptr %82, align 8, !tbaa !41
  %83 = getelementptr inbounds nuw i8, ptr %0, i64 216
  %84 = load i64, ptr %83, align 8, !tbaa !42
  %85 = getelementptr inbounds nuw i8, ptr %2, i64 216
  store i64 %84, ptr %85, align 8, !tbaa !42
  %86 = getelementptr inbounds nuw i8, ptr %0, i64 224
  %87 = load double, ptr %86, align 8, !tbaa !43
  %88 = getelementptr inbounds nuw i8, ptr %2, i64 224
  store double %87, ptr %88, align 8, !tbaa !43
  %89 = getelementptr inbounds nuw i8, ptr %0, i64 232
  %90 = load double, ptr %89, align 8, !tbaa !80
  %91 = getelementptr inbounds nuw i8, ptr %2, i64 232
  store double %90, ptr %91, align 8, !tbaa !80
  %92 = getelementptr inbounds nuw i8, ptr %0, i64 240
  %93 = load i64, ptr %92, align 8, !tbaa !81
  %94 = getelementptr inbounds nuw i8, ptr %2, i64 240
  store i64 %93, ptr %94, align 8, !tbaa !81
  br label %95

95:                                               ; preds = %1, %3
  ret ptr %2
}